; Function Attrs: nounwind uwtable
define hidden void @zif_header_register_callback(ptr noundef readonly captures(none) %0, ptr noundef writeonly captures(none) %1) local_unnamed_addr #0 {
  %3 = alloca %struct._zend_fcall_info, align 8
  %4 = alloca %struct._zend_fcall_info_cache, align 8
  call void @llvm.lifetime.start.p0(i64 64, ptr nonnull %3) #19
  call void @llvm.lifetime.start.p0(i64 40, ptr nonnull %4) #19
  %5 = getelementptr inbounds nuw i8, ptr %0, i64 44
  %6 = load i32, ptr %5, align 4, !tbaa !20
  %7 = call i32 (i32, ptr, ...) @zend_parse_parameters(i32 noundef %6, ptr noundef nonnull @.str, ptr noundef nonnull %3, ptr noundef nonnull %4) #19
  %8 = icmp eq i32 %7, -1
  br i1 %8, label %9, label %12

9:                                                ; preds = %2
  %10 = load ptr, ptr getelementptr inbounds nuw (i8, ptr @executor_globals, i64 960), align 8, !tbaa !21
  %11 = icmp ne ptr %10, null
  call void @llvm.assume(i1 %11)
  br label %28

12:                                               ; preds = %2
  %13 = load i8, ptr getelementptr inbounds nuw (i8, ptr @sapi_globals, i64 512), align 8, !tbaa !20
  %.not = icmp eq i8 %13, 0
  br i1 %.not, label %15, label %14

14:                                               ; preds = %12
  call void @zval_ptr_dtor(ptr noundef nonnull getelementptr inbounds nuw (i8, ptr @sapi_globals, i64 504)) #19
  call void @llvm.memcpy.p0.p0.i64(ptr noundef nonnull align 8 dereferenceable(40) getelementptr inbounds nuw (i8, ptr @sapi_globals, i64 520), ptr noundef nonnull align 8 dereferenceable(40) @empty_fcall_info_cache, i64 40, i1 false), !tbaa.struct !53
  br label %15

15:                                               ; preds = %14, %12
  %16 = load i8, ptr getelementptr inbounds nuw (i8, ptr @sapi_globals, i64 249), align 1, !tbaa !58
  %.not9 = icmp eq i8 %16, 0
  br i1 %.not9, label %17, label %26

17:                                               ; preds = %15
  %18 = getelementptr inbounds nuw i8, ptr %3, i64 8
  %19 = load ptr, ptr %18, align 8, !tbaa !20
  %20 = getelementptr inbounds nuw i8, ptr %3, i64 16
  %21 = load i32, ptr %20, align 8, !tbaa !20
  store ptr %19, ptr getelementptr inbounds nuw (i8, ptr @sapi_globals, i64 504), align 8, !tbaa !20
  store i32 %21, ptr getelementptr inbounds nuw (i8, ptr @sapi_globals, i64 512), align 8, !tbaa !20
  %22 = and i32 %21, 65280
  %.not10 = icmp eq i32 %22, 0
  br i1 %.not10, label %26, label %23

23:                                               ; preds = %17
  %24 = load i32, ptr %19, align 4, !tbaa !72
  %25 = add i32 %24, 1
  store i32 %25, ptr %19, align 4, !tbaa !72
  br label %26

26:                                               ; preds = %17, %23, %15
  %27 = getelementptr inbounds nuw i8, ptr %1, i64 8
  store i32 3, ptr %27, align 8, !tbaa !20
  br label %28

28:                                               ; preds = %26, %9
  call void @llvm.lifetime.end.p0(i64 40, ptr nonnull %4) #19
  call void @llvm.lifetime.end.p0(i64 64, ptr nonnull %3) #19
  ret void
}